Certificate:
    Data:
        Version: 3 (0x2)
        Serial Number: 2 (0x2)
    Signature Algorithm: sha256WithRSAEncryption
        Issuer: C=US, ST=CA, L=San Francisco, O=Fort-Funston, OU=MyOrgUnit, CN=Fort-Funston CA/name=EasyRSA/emailAddress=cert-admin@example.com
        Validity
            Not Before: Mar 15 11:05:51 2018 GMT
            Not After : Mar 12 11:05:51 2028 GMT
        Subject: C=US, ST=CA, L=San Francisco, O=Fort-Funston, OU=MyOrgUnit, CN=dummy/name=EasyRSA/emailAddress=cert-admin@example.com
        Subject Public Key Info:
            Public Key Algorithm: rsaEncryption
                Public-Key: (1024 bit)
                Modulus:
                    00:a6:cf:dc:99:b6:6f:47:69:17:91:cd:32:84:76:
                    02:11:8a:35:c2:d4:18:fe:21:6c:c9:87:21:d3:87:
                    df:c4:4e:54:ad:28:3d:af:f8:e4:32:7f:c8:f3:f2:
                    4a:d0:10:a4:2e:c3:10:dc:9b:d3:06:b3:38:e9:6e:
                    ab:8c:e4:55:b8:e7:4e:05:7c:9c:ff:de:9f:2a:f0:
                    a8:ac:69:fb:b3:ef:df:b5:c1:60:ce:5a:07:a0:61:
                    c2:d0:c4:4e:bd:1f:d2:8b:fe:47:38:9f:8e:00:70:
                    c5:4d:66:57:af:04:07:64:22:2f:4e:61:4d:a8:4d:
                    b7:fc:9b:4d:52:f0:02:c9:45
                Exponent: 65537 (0x10001)
        X509v3 extensions:
            X509v3 Basic Constraints: 
                CA:FALSE
            Netscape Comment: 
                Easy-RSA Generated Certificate
            X509v3 Subject Key Identifier: 
                8B:FC:E7:37:3C:52:A5:6A:3E:39:C7:24:D5:EF:FB:5F:87:68:89:74
            X509v3 Authority Key Identifier: 
                keyid:08:98:00:70:F6:25:CD:FC:19:5C:EA:F7:0E:94:0A:F4:A3:2A:B3:27
                DirName:/C=US/ST=CA/L=San Francisco/O=Fort-Funston/OU=MyOrgUnit/CN=Fort-Funston CA/name=EasyRSA/emailAddress=cert-admin@example.com
                serial:C5:56:D2:A0:D0:61:91:37

            X509v3 Extended Key Usage: 
                TLS Web Client Authentication
            X509v3 Key Usage: 
                Digital Signature
    Signature Algorithm: sha256WithRSAEncryption
         d7:53:3f:8e:a2:c2:a1:aa:59:4c:2b:7a:d7:c7:38:bf:2c:f2:
         3f:8a:63:32:59:07:33:ec:67:dd:13:20:00:5b:a2:eb:e9:18:
         20:8d:61:32:5e:3d:6d:f8:d9:1d:e4:38:6f:6f:f5:52:a9:1a:
         71:a6:c5:1b:62:f0:4d:ce:a2:a2:3f:98:54:2e:09:c7:fc:0d:
         4b:42:99:36:ad:a9:8c:78:67:6d:05:05:05:f1:e7:30:87:76:
         6f:bb:70:cd:aa:a0:53:62:e5:47:ab:7e:7e:1a:6d:51:f8:d9:
         cc:7a:4a:90:f4:ba:3f:ee:66:f7:51:bb:d9:cf:e0:7f:08:0c:
         6b:f9
-----BEGIN CERTIFICATE-----
MIIENzCCA6CgAwIBAgIBAjANBgkqhkiG9w0BAQsFADCBsDELMAkGA1UEBhMCVVMx
CzAJBgNVBAgTAkNBMRYwFAYDVQQHEw1TYW4gRnJhbmNpc2NvMRUwEwYDVQQKEwxG
b3J0LUZ1bnN0b24xEjAQBgNVBAsTCU15T3JnVW5pdDEYMBYGA1UEAxMPRm9ydC1G
dW5zdG9uIENBMRAwDgYDVQQpEwdFYXN5UlNBMSUwIwYJKoZIhvcNAQkBFhZjZXJ0
LWFkbWluQGV4YW1wbGUuY29tMB4XDTE4MDMxNTExMDU1MVoXDTI4MDMxMjExMDU1
MVowgaYxCzAJBgNVBAYTAlVTMQswCQYDVQQIEwJDQTEWMBQGA1UEBxMNU2FuIEZy
YW5jaXNjbzEVMBMGA1UEChMMRm9ydC1GdW5zdG9uMRIwEAYDVQQLEwlNeU9yZ1Vu
aXQxDjAMBgNVBAMTBWR1bW15MRAwDgYDVQQpEwdFYXN5UlNBMSUwIwYJKoZIhvcN
AQkBFhZjZXJ0LWFkbWluQGV4YW1wbGUuY29tMIGfMA0GCSqGSIb3DQEBAQUAA4GN
ADCBiQKBgQCmz9yZtm9HaReRzTKEdgIRijXC1Bj+IWzJhyHTh9/ETlStKD2v+OQy
f8jz8krQEKQuwxDcm9MGszjpbquM5FW4504FfJz/3p8q8Kisafuz79+1wWDOWgeg
YcLQxE69H9KL/kc4n44AcMVNZlevBAdkIi9OYU2oTbf8m01S8ALJRQIDAQABo4IB
ZzCCAWMwCQYDVR0TBAIwADAtBglghkgBhvhCAQ0EIBYeRWFzeS1SU0EgR2VuZXJh
dGVkIENlcnRpZmljYXRlMB0GA1UdDgQWBBSL/Oc3PFKlaj45xyTV7/tfh2iJdDCB
5QYDVR0jBIHdMIHagBQImABw9iXN/Blc6vcOlAr0oyqzJ6GBtqSBszCBsDELMAkG
A1UEBhMCVVMxCzAJBgNVBAgTAkNBMRYwFAYDVQQHEw1TYW4gRnJhbmNpc2NvMRUw
EwYDVQQKEwxGb3J0LUZ1bnN0b24xEjAQBgNVBAsTCU15T3JnVW5pdDEYMBYGA1UE
AxMPRm9ydC1GdW5zdG9uIENBMRAwDgYDVQQpEwdFYXN5UlNBMSUwIwYJKoZIhvcN
AQkBFhZjZXJ0LWFkbWluQGV4YW1wbGUuY29tggkAxVbSoNBhkTcwEwYDVR0lBAww
CgYIKwYBBQUHAwIwCwYDVR0PBAQDAgeAMA0GCSqGSIb3DQEBCwUAA4GBANdTP46i
wqGqWUwretfHOL8s8j+KYzJZBzPsZ90TIABbouvpGCCNYTJePW342R3kOG9v9VKp
GnGmxRti8E3OoqI/mFQuCcf8DUtCmTatqYx4Z20FBQXx5zCHdm+7cM2qoFNi5Uer
fn4abVH42cx6SpD0uj/uZvdRu9nP4H8IDGv5
-----END CERTIFICATE-----
