Certificate:
    Data:
        Version: 3 (0x2)
        Serial Number: 3 (0x3)
    Signature Algorithm: sha256WithRSAEncryption
        Issuer: C=US, ST=CA, L=San Francisco, O=Fort-Funston, OU=MyOrgUnit, CN=Fort-Funston CA/name=EasyRSA/emailAddress=cert-admin@example.com
        Validity
            Not Before: Mar 15 11:05:52 2018 GMT
            Not After : Mar 12 11:05:52 2028 GMT
        Subject: C=US, ST=CA, L=San Francisco, O=Fort-Funston, OU=MyOrgUnit, CN=client/name=EasyRSA/emailAddress=cert-admin@example.com
        Subject Public Key Info:
            Public Key Algorithm: rsaEncryption
                Public-Key: (1024 bit)
                Modulus:
                    00:cb:1e:b3:8e:fd:22:cc:26:2a:b3:36:3b:ac:8e:
                    eb:36:2e:35:28:30:c2:bd:92:a8:19:55:3f:77:5e:
                    90:53:8f:9e:92:2f:4f:c5:c9:4f:4f:39:12:bd:f7:
                    ca:10:ac:a9:3a:d4:ba:39:e8:60:0e:f9:08:14:9c:
                    f1:3a:6c:74:3f:28:a9:8a:1a:44:87:23:b0:53:e0:
                    6d:0e:ed:f1:cf:92:f7:95:11:90:9d:4c:f0:93:26:
                    d8:05:85:37:a9:fb:54:c8:ea:f9:73:db:96:71:79:
                    d4:b5:e2:eb:c9:f7:73:f1:c0:72:4c:fe:c5:71:10:
                    3a:f4:00:a5:5b:36:7b:5e:2f
                Exponent: 65537 (0x10001)
        X509v3 extensions:
            X509v3 Basic Constraints: 
                CA:FALSE
            Netscape Comment: 
                Easy-RSA Generated Certificate
            X509v3 Subject Key Identifier: 
                29:92:F2:C6:85:24:CF:67:97:9A:34:34:E3:61:19:F1:E2:6A:98:35
            X509v3 Authority Key Identifier: 
                keyid:08:98:00:70:F6:25:CD:FC:19:5C:EA:F7:0E:94:0A:F4:A3:2A:B3:27
                DirName:/C=US/ST=CA/L=San Francisco/O=Fort-Funston/OU=MyOrgUnit/CN=Fort-Funston CA/name=EasyRSA/emailAddress=cert-admin@example.com
                serial:C5:56:D2:A0:D0:61:91:37

            X509v3 Extended Key Usage: 
                TLS Web Client Authentication
            X509v3 Key Usage: 
                Digital Signature
    Signature Algorithm: sha256WithRSAEncryption
         3b:a9:50:21:25:a8:f7:45:c6:6b:f7:b3:8d:c6:10:cf:8c:41:
         79:01:8b:6c:8c:7d:bd:b9:15:b0:cb:65:dd:91:f6:76:8d:9f:
         85:e7:bb:bb:5d:8c:b7:3f:fa:42:48:df:93:9d:e2:14:03:18:
         b9:f5:54:e8:4e:7c:59:9a:41:a5:5e:13:db:9a:af:5c:fc:7f:
         2f:0a:c6:f2:48:16:06:38:b4:12:af:2c:29:a3:7a:85:fe:aa:
         ab:9e:48:62:77:61:de:84:12:02:52:ed:c6:65:0a:11:e2:ec:
         94:ec:06:f1:d7:e7:da:5a:0a:f5:28:98:09:1d:ce:2e:2c:4f:
         71:da
-----BEGIN CERTIFICATE-----
MIIEODCCA6GgAwIBAgIBAzANBgkqhkiG9w0BAQsFADCBsDELMAkGA1UEBhMCVVMx
CzAJBgNVBAgTAkNBMRYwFAYDVQQHEw1TYW4gRnJhbmNpc2NvMRUwEwYDVQQKEwxG
b3J0LUZ1bnN0b24xEjAQBgNVBAsTCU15T3JnVW5pdDEYMBYGA1UEAxMPRm9ydC1G
dW5zdG9uIENBMRAwDgYDVQQpEwdFYXN5UlNBMSUwIwYJKoZIhvcNAQkBFhZjZXJ0
LWFkbWluQGV4YW1wbGUuY29tMB4XDTE4MDMxNTExMDU1MloXDTI4MDMxMjExMDU1
MlowgacxCzAJBgNVBAYTAlVTMQswCQYDVQQIEwJDQTEWMBQGA1UEBxMNU2FuIEZy
YW5jaXNjbzEVMBMGA1UEChMMRm9ydC1GdW5zdG9uMRIwEAYDVQQLEwlNeU9yZ1Vu
aXQxDzANBgNVBAMTBmNsaWVudDEQMA4GA1UEKRMHRWFzeVJTQTElMCMGCSqGSIb3
DQEJARYWY2VydC1hZG1pbkBleGFtcGxlLmNvbTCBnzANBgkqhkiG9w0BAQEFAAOB
jQAwgYkCgYEAyx6zjv0izCYqszY7rI7rNi41KDDCvZKoGVU/d16QU4+eki9PxclP
TzkSvffKEKypOtS6OehgDvkIFJzxOmx0PyipihpEhyOwU+BtDu3xz5L3lRGQnUzw
kybYBYU3qftUyOr5c9uWcXnUteLryfdz8cByTP7FcRA69AClWzZ7Xi8CAwEAAaOC
AWcwggFjMAkGA1UdEwQCMAAwLQYJYIZIAYb4QgENBCAWHkVhc3ktUlNBIEdlbmVy
YXRlZCBDZXJ0aWZpY2F0ZTAdBgNVHQ4EFgQUKZLyxoUkz2eXmjQ042EZ8eJqmDUw
geUGA1UdIwSB3TCB2oAUCJgAcPYlzfwZXOr3DpQK9KMqsyehgbakgbMwgbAxCzAJ
BgNVBAYTAlVTMQswCQYDVQQIEwJDQTEWMBQGA1UEBxMNU2FuIEZyYW5jaXNjbzEV
MBMGA1UEChMMRm9ydC1GdW5zdG9uMRIwEAYDVQQLEwlNeU9yZ1VuaXQxGDAWBgNV
BAMTD0ZvcnQtRnVuc3RvbiBDQTEQMA4GA1UEKRMHRWFzeVJTQTElMCMGCSqGSIb3
DQEJARYWY2VydC1hZG1pbkBleGFtcGxlLmNvbYIJAMVW0qDQYZE3MBMGA1UdJQQM
MAoGCCsGAQUFBwMCMAsGA1UdDwQEAwIHgDANBgkqhkiG9w0BAQsFAAOBgQA7qVAh
Jaj3RcZr97ONxhDPjEF5AYtsjH29uRWwy2XdkfZ2jZ+F57u7XYy3P/pCSN+TneIU
Axi59VToTnxZmkGlXhPbmq9c/H8vCsbySBYGOLQSrywpo3qF/qqrnkhid2HehBIC
Uu3GZQoR4uyU7Abx1+faWgr1KJgJHc4uLE9x2g==
-----END CERTIFICATE-----
